; ModuleID = 'source-C-CXX/11/676.cpp'
source_filename = "source-C-CXX/11/676.cpp"
target datalayout = "e-m:e-p270:32:32-p271:32:32-p272:64:64-i64:64-f80:128-n8:16:32:64-S128"
target triple = "x86_64-pc-linux-gnu"

%"class.std::ios_base::Init" = type { i8 }
%"class.std::basic_istream" = type { i32 (...)**, i64, %"class.std::basic_ios" }
%"class.std::basic_ios" = type { %"class.std::ios_base", %"class.std::basic_ostream"*, i8, i8, %"class.std::basic_streambuf"*, %"class.std::ctype"*, %"class.std::num_put"*, %"class.std::num_get"* }
%"class.std::ios_base" = type { i32 (...)**, i64, i64, i32, i32, i32, %"struct.std::ios_base::_Callback_list"*, %"struct.std::ios_base::_Words", [8 x %"struct.std::ios_base::_Words"], i32, %"struct.std::ios_base::_Words"*, %"class.std::locale" }
%"struct.std::ios_base::_Callback_list" = type { %"struct.std::ios_base::_Callback_list"*, void (i32, %"class.std::ios_base"*, i32)*, i32, i32 }
%"struct.std::ios_base::_Words" = type { i8*, i64 }
%"class.std::locale" = type { %"class.std::locale::_Impl"* }
%"class.std::locale::_Impl" = type { i32, %"class.std::locale::facet"**, i64, %"class.std::locale::facet"**, i8** }
%"class.std::locale::facet" = type <{ i32 (...)**, i32, [4 x i8] }>
%"class.std::basic_ostream" = type { i32 (...)**, %"class.std::basic_ios" }
%"class.std::basic_streambuf" = type { i32 (...)**, i8*, i8*, i8*, i8*, i8*, i8*, %"class.std::locale" }
%"class.std::ctype" = type <{ %"class.std::locale::facet.base", [4 x i8], %struct.__locale_struct*, i8, [7 x i8], i32*, i32*, i16*, i8, [256 x i8], [256 x i8], i8, [6 x i8] }>
%"class.std::locale::facet.base" = type <{ i32 (...)**, i32 }>
%struct.__locale_struct = type { [13 x %struct.__locale_data*], i16*, i32*, i32*, [13 x i8*] }
%struct.__locale_data = type opaque
%"class.std::num_put" = type { %"class.std::locale::facet.base", [4 x i8] }
%"class.std::num_get" = type { %"class.std::locale::facet.base", [4 x i8] }

@_ZStL8__ioinit = internal global %"class.std::ios_base::Init" zeroinitializer, align 1
@__dso_handle = external hidden global i8
@_ZSt3cin = external global %"class.std::basic_istream", align 8
@_ZSt4cout = external global %"class.std::basic_ostream", align 8
@llvm.global_ctors = appending global [1 x { i32, void ()*, i8* }] [{ i32, void ()*, i8* } { i32 65535, void ()* @_GLOBAL__sub_I_676.cpp, i8* null }]

declare void @_ZNSt8ios_base4InitC1Ev(%"class.std::ios_base::Init"* nonnull align 1 dereferenceable(1)) unnamed_addr #0

; Function Attrs: nounwind
declare void @_ZNSt8ios_base4InitD1Ev(%"class.std::ios_base::Init"* nonnull align 1 dereferenceable(1)) unnamed_addr #1

; Function Attrs: nofree nounwind
declare i32 @__cxa_atexit(void (i8*)*, i8*, i8*) local_unnamed_addr #2

; Function Attrs: mustprogress norecurse sspstrong uwtable
define dso_local i32 @main() local_unnamed_addr #3 {
  %1 = alloca [18 x double], align 16
  %2 = bitcast [18 x double]* %1 to i8*
  call void @llvm.lifetime.start.p0i8(i64 144, i8* nonnull %2) #9
  %3 = getelementptr inbounds [18 x double], [18 x double]* %1, i64 0, i64 0
  store double 0.000000e+00, double* %3, align 16, !tbaa !5
  %4 = getelementptr inbounds [18 x double], [18 x double]* %1, i64 0, i64 1
  %5 = call nonnull align 8 dereferenceable(16) %"class.std::basic_istream"* @_ZNSi10_M_extractIdEERSiRT_(%"class.std::basic_istream"* nonnull align 8 dereferenceable(16) @_ZSt3cin, double* nonnull align 8 dereferenceable(8) %4)
  %6 = load double, double* %4, align 8, !tbaa !5
  %7 = fcmp oeq double %6, -1.000000e+00
  br i1 %7, label %113, label %8

8:                                                ; preds = %0, %15
  %9 = phi i64 [ %16, %15 ], [ 2, %0 ]
  %10 = getelementptr inbounds [18 x double], [18 x double]* %1, i64 0, i64 %9
  %11 = call nonnull align 8 dereferenceable(16) %"class.std::basic_istream"* @_ZNSi10_M_extractIdEERSiRT_(%"class.std::basic_istream"* nonnull align 8 dereferenceable(16) @_ZSt3cin, double* nonnull align 8 dereferenceable(8) %10)
  %12 = load double, double* %10, align 8, !tbaa !5
  %13 = fcmp oeq double %12, 0.000000e+00
  %14 = add nuw i64 %9, 1
  br i1 %13, label %17, label %15

15:                                               ; preds = %8, %106
  %16 = phi i64 [ %14, %8 ], [ 2, %106 ]
  br label %8, !llvm.loop !9

17:                                               ; preds = %8
  %18 = trunc i64 %9 to i32
  %19 = call i32 @llvm.umax.i32(i32 %18, i32 2)
  %20 = zext i32 %19 to i64
  %21 = add nsw i64 %20, -1
  %22 = icmp ult i64 %21, 4
  %23 = and i64 %21, -4
  %24 = or i64 %23, 1
  %25 = icmp eq i64 %21, %23
  br label %26

26:                                               ; preds = %17, %75
  %27 = phi i64 [ 1, %17 ], [ %77, %75 ]
  %28 = phi i32 [ 0, %17 ], [ %76, %75 ]
  %29 = getelementptr inbounds [18 x double], [18 x double]* %1, i64 0, i64 %27
  %30 = load double, double* %29, align 8, !tbaa !5
  br i1 %22, label %61, label %31

31:                                               ; preds = %26
  %32 = insertelement <2 x i32> <i32 poison, i32 0>, i32 %28, i32 0
  %33 = insertelement <2 x double> poison, double %30, i32 0
  %34 = shufflevector <2 x double> %33, <2 x double> poison, <2 x i32> zeroinitializer
  %35 = insertelement <2 x double> poison, double %30, i32 0
  %36 = shufflevector <2 x double> %35, <2 x double> poison, <2 x i32> zeroinitializer
  br label %37

37:                                               ; preds = %37, %31
  %38 = phi i64 [ 0, %31 ], [ %56, %37 ]
  %39 = phi <2 x i32> [ %32, %31 ], [ %54, %37 ]
  %40 = phi <2 x i32> [ zeroinitializer, %31 ], [ %55, %37 ]
  %41 = or i64 %38, 1
  %42 = getelementptr inbounds [18 x double], [18 x double]* %1, i64 0, i64 %41
  %43 = bitcast double* %42 to <2 x double>*
  %44 = load <2 x double>, <2 x double>* %43, align 8, !tbaa !5
  %45 = getelementptr inbounds double, double* %42, i64 2
  %46 = bitcast double* %45 to <2 x double>*
  %47 = load <2 x double>, <2 x double>* %46, align 8, !tbaa !5
  %48 = fdiv <2 x double> %34, %44
  %49 = fdiv <2 x double> %36, %47
  %50 = fcmp oeq <2 x double> %48, <double 2.000000e+00, double 2.000000e+00>
  %51 = fcmp oeq <2 x double> %49, <double 2.000000e+00, double 2.000000e+00>
  %52 = zext <2 x i1> %50 to <2 x i32>
  %53 = zext <2 x i1> %51 to <2 x i32>
  %54 = add <2 x i32> %39, %52
  %55 = add <2 x i32> %40, %53
  %56 = add nuw i64 %38, 4
  %57 = icmp eq i64 %56, %23
  br i1 %57, label %58, label %37, !llvm.loop !11

58:                                               ; preds = %37
  %59 = add <2 x i32> %55, %54
  %60 = call i32 @llvm.vector.reduce.add.v2i32(<2 x i32> %59)
  br i1 %25, label %75, label %61

61:                                               ; preds = %26, %58
  %62 = phi i64 [ 1, %26 ], [ %24, %58 ]
  %63 = phi i32 [ %28, %26 ], [ %60, %58 ]
  br label %64

64:                                               ; preds = %61, %64
  %65 = phi i64 [ %73, %64 ], [ %62, %61 ]
  %66 = phi i32 [ %72, %64 ], [ %63, %61 ]
  %67 = getelementptr inbounds [18 x double], [18 x double]* %1, i64 0, i64 %65
  %68 = load double, double* %67, align 8, !tbaa !5
  %69 = fdiv double %30, %68
  %70 = fcmp oeq double %69, 2.000000e+00
  %71 = zext i1 %70 to i32
  %72 = add nsw i32 %66, %71
  %73 = add nuw nsw i64 %65, 1
  %74 = icmp eq i64 %73, %20
  br i1 %74, label %75, label %64, !llvm.loop !13

75:                                               ; preds = %64, %58
  %76 = phi i32 [ %60, %58 ], [ %72, %64 ]
  %77 = add nuw nsw i64 %27, 1
  %78 = icmp eq i64 %77, %20
  br i1 %78, label %79, label %26, !llvm.loop !15

79:                                               ; preds = %75
  %80 = call nonnull align 8 dereferenceable(8) %"class.std::basic_ostream"* @_ZNSolsEi(%"class.std::basic_ostream"* nonnull align 8 dereferenceable(8) @_ZSt4cout, i32 %76)
  %81 = bitcast %"class.std::basic_ostream"* %80 to i8**
  %82 = load i8*, i8** %81, align 8, !tbaa !16
  %83 = getelementptr i8, i8* %82, i64 -24
  %84 = bitcast i8* %83 to i64*
  %85 = load i64, i64* %84, align 8
  %86 = bitcast %"class.std::basic_ostream"* %80 to i8*
  %87 = add nsw i64 %85, 240
  %88 = getelementptr inbounds i8, i8* %86, i64 %87
  %89 = bitcast i8* %88 to %"class.std::ctype"**
  %90 = load %"class.std::ctype"*, %"class.std::ctype"** %89, align 8, !tbaa !18
  %91 = icmp eq %"class.std::ctype"* %90, null
  br i1 %91, label %92, label %93

92:                                               ; preds = %79
  call void @_ZSt16__throw_bad_castv() #10
  unreachable

93:                                               ; preds = %79
  %94 = getelementptr inbounds %"class.std::ctype", %"class.std::ctype"* %90, i64 0, i32 8
  %95 = load i8, i8* %94, align 8, !tbaa !22
  %96 = icmp eq i8 %95, 0
  br i1 %96, label %100, label %97

97:                                               ; preds = %93
  %98 = getelementptr inbounds %"class.std::ctype", %"class.std::ctype"* %90, i64 0, i32 9, i64 10
  %99 = load i8, i8* %98, align 1, !tbaa !24
  br label %106

100:                                              ; preds = %93
  call void @_ZNKSt5ctypeIcE13_M_widen_initEv(%"class.std::ctype"* nonnull align 8 dereferenceable(570) %90)
  %101 = bitcast %"class.std::ctype"* %90 to i8 (%"class.std::ctype"*, i8)***
  %102 = load i8 (%"class.std::ctype"*, i8)**, i8 (%"class.std::ctype"*, i8)*** %101, align 8, !tbaa !16
  %103 = getelementptr inbounds i8 (%"class.std::ctype"*, i8)*, i8 (%"class.std::ctype"*, i8)** %102, i64 6
  %104 = load i8 (%"class.std::ctype"*, i8)*, i8 (%"class.std::ctype"*, i8)** %103, align 8
  %105 = call signext i8 %104(%"class.std::ctype"* nonnull align 8 dereferenceable(570) %90, i8 signext 10)
  br label %106

106:                                              ; preds = %97, %100
  %107 = phi i8 [ %99, %97 ], [ %105, %100 ]
  %108 = call nonnull align 8 dereferenceable(8) %"class.std::basic_ostream"* @_ZNSo3putEc(%"class.std::basic_ostream"* nonnull align 8 dereferenceable(8) %80, i8 signext %107)
  %109 = call nonnull align 8 dereferenceable(8) %"class.std::basic_ostream"* @_ZNSo5flushEv(%"class.std::basic_ostream"* nonnull align 8 dereferenceable(8) %108)
  %110 = call nonnull align 8 dereferenceable(16) %"class.std::basic_istream"* @_ZNSi10_M_extractIdEERSiRT_(%"class.std::basic_istream"* nonnull align 8 dereferenceable(16) @_ZSt3cin, double* nonnull align 8 dereferenceable(8) %4)
  %111 = load double, double* %4, align 8, !tbaa !5
  %112 = fcmp oeq double %111, -1.000000e+00
  br i1 %112, label %113, label %15

113:                                              ; preds = %106, %0
  call void @llvm.lifetime.end.p0i8(i64 144, i8* nonnull %2) #9
  ret i32 0
}

; Function Attrs: argmemonly mustprogress nofree nosync nounwind willreturn
declare void @llvm.lifetime.start.p0i8(i64 immarg, i8* nocapture) #4

declare nonnull align 8 dereferenceable(8) %"class.std::basic_ostream"* @_ZNSolsEi(%"class.std::basic_ostream"* nonnull align 8 dereferenceable(8), i32) local_unnamed_addr #0

; Function Attrs: argmemonly mustprogress nofree nosync nounwind willreturn
declare void @llvm.lifetime.end.p0i8(i64 immarg, i8* nocapture) #4

declare nonnull align 8 dereferenceable(16) %"class.std::basic_istream"* @_ZNSi10_M_extractIdEERSiRT_(%"class.std::basic_istream"* nonnull align 8 dereferenceable(16), double* nonnull align 8 dereferenceable(8)) local_unnamed_addr #0

declare nonnull align 8 dereferenceable(8) %"class.std::basic_ostream"* @_ZNSo3putEc(%"class.std::basic_ostream"* nonnull align 8 dereferenceable(8), i8 signext) local_unnamed_addr #0

declare nonnull align 8 dereferenceable(8) %"class.std::basic_ostream"* @_ZNSo5flushEv(%"class.std::basic_ostream"* nonnull align 8 dereferenceable(8)) local_unnamed_addr #0

; Function Attrs: noreturn
declare void @_ZSt16__throw_bad_castv() local_unnamed_addr #5

declare void @_ZNKSt5ctypeIcE13_M_widen_initEv(%"class.std::ctype"* nonnull align 8 dereferenceable(570)) local_unnamed_addr #0

; Function Attrs: sspstrong uwtable
define internal void @_GLOBAL__sub_I_676.cpp() #6 section ".text.startup" {
  tail call void @_ZNSt8ios_base4InitC1Ev(%"class.std::ios_base::Init"* nonnull align 1 dereferenceable(1) @_ZStL8__ioinit)
  %1 = tail call i32 @__cxa_atexit(void (i8*)* bitcast (void (%"class.std::ios_base::Init"*)* @_ZNSt8ios_base4InitD1Ev to void (i8*)*), i8* getelementptr inbounds (%"class.std::ios_base::Init", %"class.std::ios_base::Init"* @_ZStL8__ioinit, i64 0, i32 0), i8* nonnull @__dso_handle) #9
  ret void
}

; Function Attrs: nofree nosync nounwind readnone speculatable willreturn
declare i32 @llvm.umax.i32(i32, i32) #7

; Function Attrs: nofree nosync nounwind readnone willreturn
declare i32 @llvm.vector.reduce.add.v2i32(<2 x i32>) #8


!llvm.module.flags = !{!0, !1, !2, !3}
!llvm.ident = !{!4}

!0 = !{i32 1, !"wchar_size", i32 4}
!1 = !{i32 7, !"PIC Level", i32 2}
!2 = !{i32 7, !"PIE Level", i32 2}
!3 = !{i32 7, !"uwtable", i32 1}
!4 = !{!"clang version 13.0.0"}
!5 = !{!6, !6, i64 0}
!6 = !{!"double", !7, i64 0}
!7 = !{!"omnipotent char", !8, i64 0}
!8 = !{!"Simple C++ TBAA"}
!9 = distinct !{!9, !10}
!10 = !{!"llvm.loop.mustprogress"}
!11 = distinct !{!11, !10, !12}
!12 = !{!"llvm.loop.isvectorized", i32 1}
!13 = distinct !{!13, !10, !14, !12}
!14 = !{!"llvm.loop.unroll.runtime.disable"}
!15 = distinct !{!15, !10}
!16 = !{!17, !17, i64 0}
!17 = !{!"vtable pointer", !8, i64 0}
!18 = !{!19, !20, i64 240}
!19 = !{!"_ZTSSt9basic_iosIcSt11char_traitsIcEE", !20, i64 216, !7, i64 224, !21, i64 225, !20, i64 232, !20, i64 240, !20, i64 248, !20, i64 256}
!20 = !{!"any pointer", !7, i64 0}
!21 = !{!"bool", !7, i64 0}
!22 = !{!23, !7, i64 56}
!23 = !{!"_ZTSSt5ctypeIcE", !20, i64 16, !21, i64 24, !20, i64 32, !20, i64 40, !20, i64 48, !7, i64 56, !7, i64 57, !7, i64 313, !7, i64 569}
!24 = !{!7, !7, i64 0}
